(dp0
(S'Is it an animal?'
p1
S'Ideas generator'
p2
tp3
I00
s(g1
S'Cat'
p4
tp5
I01
s(S'Is it a dojo question?'
p6
g2
tp7
I01
s(S'Is it sweet'
p8
S'candy'
p9
tp10
I01
s(g6
g4
tp11
I00
s(S'Is it furry'
p12
g2
tp13
S'n'
p14
s(g6
g9
tp15
I00
s(g12
g4
tp16
I01
s(g8
g2
tp17
I01
s.